#include <math.h>
#include <stdio.h>
#include <stdlib.h>
#include <string.h>

void main()
{
	char a[1000];
	int i,m=0,j;
	gets(a);
	for(i=0;a[i]!='\0';i++)
		m++;
	for(i=m-1;i>=0;i--)
	{
		if(a[i]==' ')
		{
			for(j=i+1;a[j]!=' '&&a[j]!='\0';j++)
			printf("%c",a[j]);
			printf(" ");
		}
	}
	for(i=0;a[i]!=' '&&a[i]!='\0';i++)
		printf("%c",a[i]);
}