; ModuleID = 'source-C-CXX/22/1188.c'
source_filename = "source-C-CXX/22/1188.c"
target datalayout = "e-m:e-p270:32:32-p271:32:32-p272:64:64-i64:64-f80:128-n8:16:32:64-S128"
target triple = "x86_64-pc-linux-gnu"

; Function Attrs: nounwind sspstrong uwtable
define dso_local void @main() local_unnamed_addr #0 {
  %1 = alloca [1000 x i8], align 16
  %2 = getelementptr inbounds [1000 x i8], [1000 x i8]* %1, i64 0, i64 0
  call void @llvm.lifetime.start.p0i8(i64 1000, i8* nonnull %2) #4
  %3 = call i32 (i8*, ...) bitcast (i32 (...)* @gets to i32 (i8*, ...)*)(i8* nonnull %2) #4
  %4 = load i8, i8* %2, align 16, !tbaa !5
  %5 = icmp eq i8 %4, 0
  br i1 %5, label %34, label %8

6:                                                ; preds = %8
  %7 = zext i32 %11 to i64
  br label %16

8:                                                ; preds = %0, %8
  %9 = phi i64 [ %12, %8 ], [ 0, %0 ]
  %10 = phi i32 [ %11, %8 ], [ 0, %0 ]
  %11 = add nuw nsw i32 %10, 1
  %12 = add nuw nsw i64 %9, 1
  %13 = getelementptr inbounds [1000 x i8], [1000 x i8]* %1, i64 0, i64 %12
  %14 = load i8, i8* %13, align 1, !tbaa !5
  %15 = icmp eq i8 %14, 0
  br i1 %15, label %6, label %8, !llvm.loop !8

16:                                               ; preds = %6, %32
  %17 = phi i64 [ %7, %6 ], [ %18, %32 ]
  %18 = add nsw i64 %17, -1
  %19 = getelementptr inbounds [1000 x i8], [1000 x i8]* %1, i64 0, i64 %18
  %20 = load i8, i8* %19, align 1, !tbaa !5
  %21 = icmp eq i8 %20, 32
  br i1 %21, label %22, label %32

22:                                               ; preds = %16, %26
  %23 = phi i64 [ %29, %26 ], [ %17, %16 ]
  %24 = getelementptr inbounds [1000 x i8], [1000 x i8]* %1, i64 0, i64 %23
  %25 = load i8, i8* %24, align 1, !tbaa !5
  switch i8 %25, label %26 [
    i8 32, label %30
    i8 0, label %30
  ]

26:                                               ; preds = %22
  %27 = sext i8 %25 to i32
  %28 = call i32 @putchar(i32 %27)
  %29 = add i64 %23, 1
  br label %22, !llvm.loop !10

30:                                               ; preds = %22, %22
  %31 = call i32 @putchar(i32 32)
  br label %32

32:                                               ; preds = %16, %30
  %33 = icmp sgt i64 %17, 1
  br i1 %33, label %16, label %34, !llvm.loop !11

34:                                               ; preds = %32, %0
  br label %35

35:                                               ; preds = %34, %39
  %36 = phi i64 [ %42, %39 ], [ 0, %34 ]
  %37 = getelementptr inbounds [1000 x i8], [1000 x i8]* %1, i64 0, i64 %36
  %38 = load i8, i8* %37, align 1, !tbaa !5
  switch i8 %38, label %39 [
    i8 32, label %43
    i8 0, label %43
  ]

39:                                               ; preds = %35
  %40 = sext i8 %38 to i32
  %41 = call i32 @putchar(i32 %40)
  %42 = add nuw i64 %36, 1
  br label %35, !llvm.loop !12

43:                                               ; preds = %35, %35
  call void @llvm.lifetime.end.p0i8(i64 1000, i8* nonnull %2) #4
  ret void
}

; Function Attrs: argmemonly mustprogress nofree nosync nounwind willreturn
declare void @llvm.lifetime.start.p0i8(i64 immarg, i8* nocapture) #1

declare i32 @gets(...) local_unnamed_addr #2

; Function Attrs: argmemonly mustprogress nofree nosync nounwind willreturn
declare void @llvm.lifetime.end.p0i8(i64 immarg, i8* nocapture) #1

; Function Attrs: nofree nounwind
declare noundef i32 @putchar(i32 noundef) local_unnamed_addr #3


!llvm.module.flags = !{!0, !1, !2, !3}
!llvm.ident = !{!4}

!0 = !{i32 1, !"wchar_size", i32 4}
!1 = !{i32 7, !"PIC Level", i32 2}
!2 = !{i32 7, !"PIE Level", i32 2}
!3 = !{i32 7, !"uwtable", i32 1}
!4 = !{!"clang version 13.0.0"}
!5 = !{!6, !6, i64 0}
!6 = !{!"omnipotent char", !7, i64 0}
!7 = !{!"Simple C/C++ TBAA"}
!8 = distinct !{!8, !9}
!9 = !{!"llvm.loop.mustprogress"}
!10 = distinct !{!10, !9}
!11 = distinct !{!11, !9}
!12 = distinct !{!12, !9}
